target datalayout = "e-m:e-p270:32:32-p271:32:32-p272:64:64-i64:64-i128:128-f80:128-n8:16:32:64-S128"
target triple = "x86_64-pc-linux-gnu"

%"class.std::__shared_count" = type { ptr }
%"struct.duckdb::roaring::ContainerMetadataCollection" = type { %"class.duckdb::vector.73", %"class.duckdb::vector.73", %"class.duckdb::vector.73", i64, i64, i64 }
%"class.duckdb::vector.73" = type { %"class.std::vector.74" }
%"class.std::vector.74" = type { %"struct.std::_Vector_base.75" }
%"struct.std::_Vector_base.75" = type { %"struct.std::_Vector_base<unsigned char, std::allocator<unsigned char>>::_Vector_impl" }
%"struct.std::_Vector_base<unsigned char, std::allocator<unsigned char>>::_Vector_impl" = type { %"struct.std::_Vector_base<unsigned char, std::allocator<unsigned char>>::_Vector_impl_data" }
%"struct.std::_Vector_base<unsigned char, std::allocator<unsigned char>>::_Vector_impl_data" = type { ptr, ptr, ptr }
%"class.duckdb::vector.79" = type { %"class.std::vector.80" }
%"class.std::vector.80" = type { %"struct.std::_Vector_base.81" }
%"struct.std::_Vector_base.81" = type { %"struct.std::_Vector_base<duckdb::roaring::ContainerMetadata, std::allocator<duckdb::roaring::ContainerMetadata>>::_Vector_impl" }
%"struct.std::_Vector_base<duckdb::roaring::ContainerMetadata, std::allocator<duckdb::roaring::ContainerMetadata>>::_Vector_impl" = type { %"struct.std::_Vector_base<duckdb::roaring::ContainerMetadata, std::allocator<duckdb::roaring::ContainerMetadata>>::_Vector_impl_data" }
%"struct.std::_Vector_base<duckdb::roaring::ContainerMetadata, std::allocator<duckdb::roaring::ContainerMetadata>>::_Vector_impl_data" = type { ptr, ptr, ptr }
%"class.duckdb::BufferHandle" = type { %"class.duckdb::shared_ptr.120", %"class.duckdb::optional_ptr.124" }
%"class.duckdb::shared_ptr.120" = type { %"class.std::shared_ptr.121" }
%"class.std::shared_ptr.121" = type { %"class.std::__shared_ptr.122" }
%"class.std::__shared_ptr.122" = type { ptr, %"class.std::__shared_count" }
%"class.duckdb::optional_ptr.124" = type { ptr }
%"struct.duckdb::roaring::RoaringScanState" = type { %"struct.duckdb::SegmentScanState", %"class.duckdb::BufferHandle", ptr, %"class.duckdb::unique_ptr.182", ptr, %"struct.duckdb::roaring::ContainerMetadataCollection", %"class.duckdb::vector.79", %"class.duckdb::vector.191" }
%"struct.duckdb::SegmentScanState" = type { ptr }
%"class.duckdb::unique_ptr.182" = type { %"class.std::unique_ptr.183" }
%"class.std::unique_ptr.183" = type { %"struct.std::__uniq_ptr_data.184" }
%"struct.std::__uniq_ptr_data.184" = type { %"class.std::__uniq_ptr_impl.185" }
%"class.std::__uniq_ptr_impl.185" = type { %"class.std::tuple.186" }
%"class.std::tuple.186" = type { %"struct.std::_Tuple_impl.187" }
%"struct.std::_Tuple_impl.187" = type { %"struct.std::_Head_base.190" }
%"struct.std::_Head_base.190" = type { ptr }
%"class.duckdb::vector.191" = type { %"class.std::vector.192" }
%"class.std::vector.192" = type { %"struct.std::_Vector_base.193" }
%"struct.std::_Vector_base.193" = type { %"struct.std::_Vector_base<unsigned long, std::allocator<unsigned long>>::_Vector_impl" }
%"struct.std::_Vector_base<unsigned long, std::allocator<unsigned long>>::_Vector_impl" = type { %"struct.std::_Vector_base<unsigned long, std::allocator<unsigned long>>::_Vector_impl_data" }
%"struct.std::_Vector_base<unsigned long, std::allocator<unsigned long>>::_Vector_impl_data" = type { ptr, ptr, ptr }

@_ZN6duckdb7roaring16RoaringScanStateC1ERNS_13ColumnSegmentE = unnamed_addr alias void (ptr, ptr), ptr @_ZN6duckdb7roaring16RoaringScanStateC2ERNS_13ColumnSegmentE

; Function Attrs: mustprogress uwtable
define void @_ZN6duckdb7roaring16RoaringScanState12ScanInternalERNS0_18ContainerScanStateEmRNS_6VectorEm(ptr noundef nonnull align 8 dereferenceable(200) %0, ptr noundef nonnull align 8 dereferenceable(32) %1, i64 noundef %2, ptr noundef nonnull align 8 dereferenceable(104) %3, i64 noundef %4) #0 align 2 {
  %6 = alloca ptr, align 8
  %7 = alloca ptr, align 8
  %8 = alloca i64, align 8
  %9 = alloca ptr, align 8
  %10 = alloca i64, align 8
  store ptr %0, ptr %6, align 8, !tbaa !164
  store ptr %1, ptr %7, align 8, !tbaa !204
  store i64 %2, ptr %8, align 8, !tbaa !8
  store ptr %3, ptr %9, align 8, !tbaa !101
  store i64 %4, ptr %10, align 8, !tbaa !8
  %11 = load ptr, ptr %7, align 8, !tbaa !204
  %12 = load ptr, ptr %9, align 8, !tbaa !101
  %13 = load i64, ptr %10, align 8, !tbaa !8
  %14 = load i64, ptr %8, align 8, !tbaa !8
  %15 = load ptr, ptr %11, align 8, !tbaa !242
  %16 = getelementptr inbounds ptr, ptr %15, i64 2
  %17 = load ptr, ptr %16, align 8
  call void %17(ptr noundef nonnull align 8 dereferenceable(32) %11, ptr noundef nonnull align 8 dereferenceable(104) %12, i64 noundef %13, i64 noundef %14)
  ret void
}

; Function Attrs: mustprogress nounwind uwtable
define noundef i64 @_ZN6duckdb7roaring16RoaringScanState17GetContainerIndexEmRm(ptr noundef nonnull align 8 dereferenceable(200) %0, i64 noundef %1, ptr noundef nonnull align 8 dereferenceable(8) %2) #2 align 2 {
  %4 = alloca ptr, align 8
  %5 = alloca i64, align 8
  %6 = alloca ptr, align 8
  %7 = alloca i64, align 8
  store ptr %0, ptr %4, align 8, !tbaa !164
  store i64 %1, ptr %5, align 8, !tbaa !8
  store ptr %2, ptr %6, align 8, !tbaa !10
  call void @llvm.lifetime.start.p0(i64 8, ptr %7) #19
  %8 = load i64, ptr %5, align 8, !tbaa !8
  %9 = udiv i64 %8, 2048
  store i64 %9, ptr %7, align 8, !tbaa !8
  %10 = load i64, ptr %5, align 8, !tbaa !8
  %11 = urem i64 %10, 2048
  %12 = load ptr, ptr %6, align 8, !tbaa !10
  store i64 %11, ptr %12, align 8, !tbaa !8
  %13 = load i64, ptr %7, align 8, !tbaa !8
  call void @llvm.lifetime.end.p0(i64 8, ptr %7) #19
  ret i64 %13
}

; Function Attrs: mustprogress uwtable
define void @_ZN6duckdb7roaring15RoaringFetchRowERNS_13ColumnSegmentERNS_16ColumnFetchStateElRNS_6VectorEm(ptr noundef nonnull align 8 dereferenceable(224) %0, ptr noundef nonnull align 8 dereferenceable(80) %1, i64 noundef %2, ptr noundef nonnull align 8 dereferenceable(104) %3, i64 noundef %4) #0 personality ptr @__gxx_personality_v0 {
  %6 = alloca ptr, align 8
  %7 = alloca ptr, align 8
  %8 = alloca i64, align 8
  %9 = alloca ptr, align 8
  %10 = alloca i64, align 8
  %11 = alloca %"struct.duckdb::roaring::RoaringScanState", align 8
  %12 = alloca i64, align 8
  %13 = alloca i64, align 8
  %14 = alloca ptr, align 8
  %15 = alloca i32, align 4
  %16 = alloca ptr, align 8
  store ptr %0, ptr %6, align 8, !tbaa !156
  store ptr %1, ptr %7, align 8, !tbaa !218
  store i64 %2, ptr %8, align 8, !tbaa !8
  store ptr %3, ptr %9, align 8, !tbaa !101
  store i64 %4, ptr %10, align 8, !tbaa !8
  call void @llvm.lifetime.start.p0(i64 200, ptr %11) #19
  %17 = load ptr, ptr %6, align 8, !tbaa !156
  call void @_ZN6duckdb7roaring16RoaringScanStateC1ERNS_13ColumnSegmentE(ptr noundef nonnull align 8 dereferenceable(200) %11, ptr noundef nonnull align 8 dereferenceable(224) %17)
  call void @llvm.lifetime.start.p0(i64 8, ptr %12) #19
  call void @llvm.lifetime.start.p0(i64 8, ptr %13) #19
  %18 = load i64, ptr %8, align 8, !tbaa !8
  %19 = invoke noundef i64 @_ZN6duckdb7roaring16RoaringScanState17GetContainerIndexEmRm(ptr noundef nonnull align 8 dereferenceable(200) %11, i64 noundef %18, ptr noundef nonnull align 8 dereferenceable(8) %12)
          to label %20 unwind label %29

20:                                               ; preds = %5
  store i64 %19, ptr %13, align 8, !tbaa !8
  call void @llvm.lifetime.start.p0(i64 8, ptr %16) #19
  %21 = load i64, ptr %13, align 8, !tbaa !8
  %22 = load i64, ptr %12, align 8, !tbaa !8
  %23 = invoke noundef nonnull align 8 dereferenceable(32) ptr @_ZN6duckdb7roaring16RoaringScanState13LoadContainerEmm(ptr noundef nonnull align 8 dereferenceable(200) %11, i64 noundef %21, i64 noundef %22)
          to label %24 unwind label %33

24:                                               ; preds = %20
  store ptr %23, ptr %16, align 8, !tbaa !204
  %25 = load ptr, ptr %16, align 8, !tbaa !204
  %26 = load ptr, ptr %9, align 8, !tbaa !101
  %27 = load i64, ptr %10, align 8, !tbaa !8
  invoke void @_ZN6duckdb7roaring16RoaringScanState12ScanInternalERNS0_18ContainerScanStateEmRNS_6VectorEm(ptr noundef nonnull align 8 dereferenceable(200) %11, ptr noundef nonnull align 8 dereferenceable(32) %25, i64 noundef 1, ptr noundef nonnull align 8 dereferenceable(104) %26, i64 noundef %27)
          to label %28 unwind label %33

28:                                               ; preds = %24
  call void @llvm.lifetime.end.p0(i64 8, ptr %16) #19
  call void @llvm.lifetime.end.p0(i64 8, ptr %13) #19
  call void @llvm.lifetime.end.p0(i64 8, ptr %12) #19
  call void @_ZN6duckdb7roaring16RoaringScanStateD2Ev(ptr noundef nonnull align 8 dereferenceable(200) %11) #19
  call void @llvm.lifetime.end.p0(i64 200, ptr %11) #19
  ret void

29:                                               ; preds = %5
  %30 = landingpad { ptr, i32 }
          cleanup
  %31 = extractvalue { ptr, i32 } %30, 0
  store ptr %31, ptr %14, align 8
  %32 = extractvalue { ptr, i32 } %30, 1
  store i32 %32, ptr %15, align 4
  br label %37

33:                                               ; preds = %24, %20
  %34 = landingpad { ptr, i32 }
          cleanup
  %35 = extractvalue { ptr, i32 } %34, 0
  store ptr %35, ptr %14, align 8
  %36 = extractvalue { ptr, i32 } %34, 1
  store i32 %36, ptr %15, align 4
  call void @llvm.lifetime.end.p0(i64 8, ptr %16) #19
  br label %37

37:                                               ; preds = %33, %29
  call void @llvm.lifetime.end.p0(i64 8, ptr %13) #19
  call void @llvm.lifetime.end.p0(i64 8, ptr %12) #19
  call void @_ZN6duckdb7roaring16RoaringScanStateD2Ev(ptr noundef nonnull align 8 dereferenceable(200) %11) #19
  call void @llvm.lifetime.end.p0(i64 200, ptr %11) #19
  br label %38

38:                                               ; preds = %37
  %39 = load ptr, ptr %14, align 8
  %40 = load i32, ptr %15, align 4
  %41 = insertvalue { ptr, i32 } poison, ptr %39, 0
  %42 = insertvalue { ptr, i32 } %41, i32 %40, 1
  resume { ptr, i32 } %42
}