; Function Attrs: mustprogress uwtable
define void @_ZN6duckdb7roaring15RoaringFetchRowERNS_13ColumnSegmentERNS_16ColumnFetchStateElRNS_6VectorEm(ptr noundef nonnull align 8 dereferenceable(224) %0, ptr nonnull readnone align 8 captures(none) %1, i64 noundef %2, ptr noundef nonnull align 8 dereferenceable(104) %3, i64 noundef %4) #0 personality ptr @__gxx_personality_v0 {
  %6 = alloca %"struct.duckdb::roaring::RoaringScanState", align 8
  call void @llvm.lifetime.start.p0(i64 200, ptr nonnull %6) #27
  call void @_ZN6duckdb7roaring16RoaringScanStateC1ERNS_13ColumnSegmentE(ptr noundef nonnull align 8 dereferenceable(200) %6, ptr noundef nonnull align 8 dereferenceable(224) %0)
  %7 = lshr i64 %2, 11
  %8 = and i64 %2, 2047
  %9 = invoke noundef nonnull align 8 dereferenceable(32) ptr @_ZN6duckdb7roaring16RoaringScanState13LoadContainerEmm(ptr noundef nonnull align 8 dereferenceable(200) %6, i64 noundef %7, i64 noundef %8)
          to label %10 unwind label %35

10:                                               ; preds = %5
  %11 = load ptr, ptr %9, align 8, !tbaa !136
  %12 = getelementptr inbounds nuw i8, ptr %11, i64 16
  %13 = load ptr, ptr %12, align 8
  invoke void %13(ptr noundef nonnull align 8 dereferenceable(32) %9, ptr noundef nonnull align 8 dereferenceable(104) %3, i64 noundef %4, i64 noundef 1)
          to label %_ZN6duckdb7roaring16RoaringScanState12ScanInternalERNS0_18ContainerScanStateEmRNS_6VectorEm.exit unwind label %35

_ZN6duckdb7roaring16RoaringScanState12ScanInternalERNS0_18ContainerScanStateEmRNS_6VectorEm.exit: ; preds = %10
  store ptr getelementptr inbounds nuw inrange(-16, 16) (i8, ptr @_ZTVN6duckdb7roaring16RoaringScanStateE, i64 16), ptr %6, align 8, !tbaa !136
  %14 = getelementptr inbounds nuw i8, ptr %6, i64 176
  %15 = load ptr, ptr %14, align 8, !tbaa !198
  %.not.i.i.i.i = icmp eq ptr %15, null
  br i1 %.not.i.i.i.i, label %_ZNSt6vectorImSaImEED2Ev.exit.i, label %16

16:                                               ; preds = %_ZN6duckdb7roaring16RoaringScanState12ScanInternalERNS0_18ContainerScanStateEmRNS_6VectorEm.exit
  call void @_ZdlPv(ptr noundef nonnull %15) #29
  br label %_ZNSt6vectorImSaImEED2Ev.exit.i

_ZNSt6vectorImSaImEED2Ev.exit.i:                  ; preds = %16, %_ZN6duckdb7roaring16RoaringScanState12ScanInternalERNS0_18ContainerScanStateEmRNS_6VectorEm.exit
  %17 = getelementptr inbounds nuw i8, ptr %6, i64 152
  %18 = load ptr, ptr %17, align 8, !tbaa !125
  %.not.i.i.i1.i = icmp eq ptr %18, null
  br i1 %.not.i.i.i1.i, label %_ZNSt6vectorIN6duckdb7roaring17ContainerMetadataESaIS2_EED2Ev.exit.i, label %19

19:                                               ; preds = %_ZNSt6vectorImSaImEED2Ev.exit.i
  call void @_ZdlPv(ptr noundef nonnull %18) #29
  br label %_ZNSt6vectorIN6duckdb7roaring17ContainerMetadataESaIS2_EED2Ev.exit.i

_ZNSt6vectorIN6duckdb7roaring17ContainerMetadataESaIS2_EED2Ev.exit.i: ; preds = %19, %_ZNSt6vectorImSaImEED2Ev.exit.i
  %20 = getelementptr inbounds nuw i8, ptr %6, i64 56
  %21 = getelementptr inbounds nuw i8, ptr %6, i64 104
  %22 = load ptr, ptr %21, align 8, !tbaa !200
  %.not.i.i.i.i.i = icmp eq ptr %22, null
  br i1 %.not.i.i.i.i.i, label %_ZNSt6vectorIhSaIhEED2Ev.exit.i.i, label %23

23:                                               ; preds = %_ZNSt6vectorIN6duckdb7roaring17ContainerMetadataESaIS2_EED2Ev.exit.i
  call void @_ZdlPv(ptr noundef nonnull %22) #29
  br label %_ZNSt6vectorIhSaIhEED2Ev.exit.i.i

_ZNSt6vectorIhSaIhEED2Ev.exit.i.i:                ; preds = %23, %_ZNSt6vectorIN6duckdb7roaring17ContainerMetadataESaIS2_EED2Ev.exit.i
  %24 = getelementptr inbounds nuw i8, ptr %6, i64 80
  %25 = load ptr, ptr %24, align 8, !tbaa !200
  %.not.i.i.i1.i.i = icmp eq ptr %25, null
  br i1 %.not.i.i.i1.i.i, label %_ZNSt6vectorIhSaIhEED2Ev.exit2.i.i, label %26

26:                                               ; preds = %_ZNSt6vectorIhSaIhEED2Ev.exit.i.i
  call void @_ZdlPv(ptr noundef nonnull %25) #29
  br label %_ZNSt6vectorIhSaIhEED2Ev.exit2.i.i

_ZNSt6vectorIhSaIhEED2Ev.exit2.i.i:               ; preds = %26, %_ZNSt6vectorIhSaIhEED2Ev.exit.i.i
  %27 = load ptr, ptr %20, align 8, !tbaa !200
  %.not.i.i.i3.i.i = icmp eq ptr %27, null
  br i1 %.not.i.i.i3.i.i, label %_ZN6duckdb7roaring27ContainerMetadataCollectionD2Ev.exit.i, label %28

28:                                               ; preds = %_ZNSt6vectorIhSaIhEED2Ev.exit2.i.i
  call void @_ZdlPv(ptr noundef nonnull %27) #29
  br label %_ZN6duckdb7roaring27ContainerMetadataCollectionD2Ev.exit.i

_ZN6duckdb7roaring27ContainerMetadataCollectionD2Ev.exit.i: ; preds = %28, %_ZNSt6vectorIhSaIhEED2Ev.exit2.i.i
  %29 = getelementptr inbounds nuw i8, ptr %6, i64 40
  %30 = load ptr, ptr %29, align 8, !tbaa !201
  %.not.i.i = icmp eq ptr %30, null
  br i1 %.not.i.i, label %_ZN6duckdb7roaring16RoaringScanStateD2Ev.exit, label %_ZNKSt14default_deleteIN6duckdb7roaring18ContainerScanStateEEclEPS2_.exit.i.i

_ZNKSt14default_deleteIN6duckdb7roaring18ContainerScanStateEEclEPS2_.exit.i.i: ; preds = %_ZN6duckdb7roaring27ContainerMetadataCollectionD2Ev.exit.i
  %31 = load ptr, ptr %30, align 8, !tbaa !136
  %32 = getelementptr inbounds nuw i8, ptr %31, i64 8
  %33 = load ptr, ptr %32, align 8
  call void %33(ptr noundef nonnull align 8 dereferenceable(32) %30) #27
  br label %_ZN6duckdb7roaring16RoaringScanStateD2Ev.exit

_ZN6duckdb7roaring16RoaringScanStateD2Ev.exit:    ; preds = %_ZN6duckdb7roaring27ContainerMetadataCollectionD2Ev.exit.i, %_ZNKSt14default_deleteIN6duckdb7roaring18ContainerScanStateEEclEPS2_.exit.i.i
  store ptr null, ptr %29, align 8, !tbaa !201
  %34 = getelementptr inbounds nuw i8, ptr %6, i64 8
  call void @_ZN6duckdb12BufferHandleD1Ev(ptr noundef nonnull align 8 dereferenceable(24) %34) #27
  call void @llvm.lifetime.end.p0(i64 200, ptr nonnull %6) #27
  ret void

35:                                               ; preds = %10, %5
  %36 = landingpad { ptr, i32 }
          cleanup
  call void @_ZN6duckdb7roaring16RoaringScanStateD2Ev(ptr noundef nonnull align 8 dereferenceable(200) %6) #27
  call void @llvm.lifetime.end.p0(i64 200, ptr nonnull %6) #27
  resume { ptr, i32 } %36
}